target datalayout = "e-m:e-p270:32:32-p271:32:32-p272:64:64-i64:64-i128:128-f80:128-n8:16:32:64-S128"
target triple = "x86_64-pc-linux-gnu"

%struct.PJconsts = type { ptr, ptr, ptr, ptr, ptr, ptr, ptr, ptr, ptr, ptr, ptr, ptr, i32, ptr, ptr, ptr, ptr, ptr, ptr, ptr, ptr, double, double, double, double, double, double, double, double, double, double, double, double, double, double, double, double, double, double, double, double, double, double, i32, i32, i32, i32, i32, i32, i32, i32, i32, i32, i32, ptr, ptr, ptr, ptr, ptr, ptr, double, double, double, double, double, double, double, double, double, double, double, i32, [7 x double], i32, ptr, ptr, double, double, i32, [4 x i8], %"class.std::shared_ptr", i8, double, i8, %"class.std::__cxx11::basic_string", %"class.std::__cxx11::basic_string", %"class.std::__cxx11::basic_string", i8, %"class.std::vector", i32, %"class.std::vector.3", i32, i8, i8, i8, ptr }
%"class.std::shared_ptr" = type { %"class.std::__shared_ptr" }
%"class.std::__shared_ptr" = type { ptr, %"class.std::__shared_count" }
%"class.std::__shared_count" = type { ptr }
%"class.std::__cxx11::basic_string" = type { %"struct.std::__cxx11::basic_string<char>::_Alloc_hider", i64, %union.anon }
%"struct.std::__cxx11::basic_string<char>::_Alloc_hider" = type { ptr }
%union.anon = type { i64, [8 x i8] }
%"class.std::vector" = type { %"struct.std::_Vector_base" }
%"struct.std::_Vector_base" = type { %"struct.std::_Vector_base<osgeo::proj::operation::GridDescription, std::allocator<osgeo::proj::operation::GridDescription>>::_Vector_impl" }
%"struct.std::_Vector_base<osgeo::proj::operation::GridDescription, std::allocator<osgeo::proj::operation::GridDescription>>::_Vector_impl" = type { %"struct.std::_Vector_base<osgeo::proj::operation::GridDescription, std::allocator<osgeo::proj::operation::GridDescription>>::_Vector_impl_data" }
%"struct.std::_Vector_base<osgeo::proj::operation::GridDescription, std::allocator<osgeo::proj::operation::GridDescription>>::_Vector_impl_data" = type { ptr, ptr, ptr }
%"class.std::vector.3" = type { %"struct.std::_Vector_base.4" }
%"struct.std::_Vector_base.4" = type { %"struct.std::_Vector_base<PJCoordOperation, std::allocator<PJCoordOperation>>::_Vector_impl" }
%"struct.std::_Vector_base<PJCoordOperation, std::allocator<PJCoordOperation>>::_Vector_impl" = type { %"struct.std::_Vector_base<PJCoordOperation, std::allocator<PJCoordOperation>>::_Vector_impl_data" }
%"struct.std::_Vector_base<PJCoordOperation, std::allocator<PJCoordOperation>>::_Vector_impl_data" = type { ptr, ptr, ptr }
%"struct.(anonymous namespace)::pj_aitoff_data" = type { double, i32 }
%union.PROJVALUE = type { double }

@.str.2 = private unnamed_addr constant [7 x i8] c"tlat_1\00", align 1
@.str.3 = private unnamed_addr constant [7 x i8] c"rlat_1\00", align 1
@.str.4 = private unnamed_addr constant [50 x i8] c"Invalid value for lat_1: |lat_1| should be < 90\C2\B0\00", align 1

; Function Attrs: mustprogress nounwind uwtable
define internal noundef ptr @_ZL15pj_aitoff_setupP8PJconsts(ptr noundef %0) #4 {
  %2 = alloca ptr, align 8
  store ptr %0, ptr %2, align 8, !tbaa !3
  %3 = load ptr, ptr %2, align 8, !tbaa !3
  %4 = getelementptr inbounds nuw %struct.PJconsts, ptr %3, i32 0, i32 14
  store ptr @_ZL16aitoff_s_inverse5PJ_XYP8PJconsts, ptr %4, align 8, !tbaa !47
  %5 = load ptr, ptr %2, align 8, !tbaa !3
  %6 = getelementptr inbounds nuw %struct.PJconsts, ptr %5, i32 0, i32 13
  store ptr @_ZL16aitoff_s_forward5PJ_LPP8PJconsts, ptr %6, align 8, !tbaa !48
  %7 = load ptr, ptr %2, align 8, !tbaa !3
  %8 = getelementptr inbounds nuw %struct.PJconsts, ptr %7, i32 0, i32 27
  store double 0.000000e+00, ptr %8, align 8, !tbaa !49
  %9 = load ptr, ptr %2, align 8, !tbaa !3
  ret ptr %9
}

; Function Attrs: mustprogress uwtable
define hidden noundef ptr @_Z35pj_projection_specific_setup_wintriP8PJconsts(ptr noundef %0) #0 {
  %2 = alloca ptr, align 8
  %3 = alloca ptr, align 8
  %4 = alloca ptr, align 8
  %5 = alloca i32, align 4
  %6 = alloca %union.PROJVALUE, align 8
  %7 = alloca %union.PROJVALUE, align 8
  store ptr %0, ptr %3, align 8, !tbaa !3
  call void @llvm.lifetime.start.p0(i64 8, ptr %4) #8
  %8 = call noalias ptr @calloc(i64 noundef 1, i64 noundef 16) #9
  store ptr %8, ptr %4, align 8, !tbaa !41
  %9 = load ptr, ptr %4, align 8, !tbaa !41
  %10 = icmp eq ptr null, %9
  br i1 %10, label %11, label %14

11:                                               ; preds = %1
  %12 = load ptr, ptr %3, align 8, !tbaa !3
  %13 = call noundef ptr @_Z21pj_default_destructorP8PJconstsi(ptr noundef %12, i32 noundef 4096)
  store ptr %13, ptr %2, align 8
  store i32 1, ptr %5, align 4
  br label %55

14:                                               ; preds = %1
  %15 = load ptr, ptr %4, align 8, !tbaa !41
  %16 = load ptr, ptr %3, align 8, !tbaa !3
  %17 = getelementptr inbounds nuw %struct.PJconsts, ptr %16, i32 0, i32 11
  store ptr %15, ptr %17, align 8, !tbaa !43
  %18 = load ptr, ptr %4, align 8, !tbaa !41
  %19 = getelementptr inbounds nuw %"struct.(anonymous namespace)::pj_aitoff_data", ptr %18, i32 0, i32 1
  store i32 1, ptr %19, align 8, !tbaa !44
  call void @llvm.lifetime.start.p0(i64 8, ptr %6) #8
  %20 = load ptr, ptr %3, align 8, !tbaa !3
  %21 = getelementptr inbounds nuw %struct.PJconsts, ptr %20, i32 0, i32 0
  %22 = load ptr, ptr %21, align 8, !tbaa !50
  %23 = load ptr, ptr %3, align 8, !tbaa !3
  %24 = getelementptr inbounds nuw %struct.PJconsts, ptr %23, i32 0, i32 3
  %25 = load ptr, ptr %24, align 8, !tbaa !51
  %26 = call i64 @_Z8pj_paramP6pj_ctxP8ARG_listPKc(ptr noundef %22, ptr noundef %25, ptr noundef @.str.2)
  %27 = getelementptr inbounds nuw %union.PROJVALUE, ptr %6, i32 0, i32 0
  store i64 %26, ptr %27, align 8
  %28 = load i32, ptr %6, align 8, !tbaa !52
  %29 = icmp ne i32 %28, 0
  call void @llvm.lifetime.end.p0(i64 8, ptr %6) #8
  br i1 %29, label %30, label %49

30:                                               ; preds = %14
  call void @llvm.lifetime.start.p0(i64 8, ptr %7) #8
  %31 = load ptr, ptr %3, align 8, !tbaa !3
  %32 = getelementptr inbounds nuw %struct.PJconsts, ptr %31, i32 0, i32 0
  %33 = load ptr, ptr %32, align 8, !tbaa !50
  %34 = load ptr, ptr %3, align 8, !tbaa !3
  %35 = getelementptr inbounds nuw %struct.PJconsts, ptr %34, i32 0, i32 3
  %36 = load ptr, ptr %35, align 8, !tbaa !51
  %37 = call i64 @_Z8pj_paramP6pj_ctxP8ARG_listPKc(ptr noundef %33, ptr noundef %36, ptr noundef @.str.3)
  %38 = getelementptr inbounds nuw %union.PROJVALUE, ptr %7, i32 0, i32 0
  store i64 %37, ptr %38, align 8
  %39 = load double, ptr %7, align 8, !tbaa !52
  %40 = call double @cos(double noundef %39) #8, !tbaa !53
  %41 = load ptr, ptr %4, align 8, !tbaa !41
  %42 = getelementptr inbounds nuw %"struct.(anonymous namespace)::pj_aitoff_data", ptr %41, i32 0, i32 0
  store double %40, ptr %42, align 8, !tbaa !54
  %43 = fcmp oeq double %40, 0.000000e+00
  call void @llvm.lifetime.end.p0(i64 8, ptr %7) #8
  br i1 %43, label %44, label %48

44:                                               ; preds = %30
  %45 = load ptr, ptr %3, align 8, !tbaa !3
  call void (ptr, ptr, ...) @_Z14proj_log_errorPK8PJconstsPKcz(ptr noundef %45, ptr noundef @.str.4)
  %46 = load ptr, ptr %3, align 8, !tbaa !3
  %47 = call noundef ptr @_Z21pj_default_destructorP8PJconstsi(ptr noundef %46, i32 noundef 1027)
  store ptr %47, ptr %2, align 8
  store i32 1, ptr %5, align 4
  br label %55

48:                                               ; preds = %30
  br label %52

49:                                               ; preds = %14
  %50 = load ptr, ptr %4, align 8, !tbaa !41
  %51 = getelementptr inbounds nuw %"struct.(anonymous namespace)::pj_aitoff_data", ptr %50, i32 0, i32 0
  store double 0x3FE45F306DC9C883, ptr %51, align 8, !tbaa !54
  br label %52

52:                                               ; preds = %49, %48
  %53 = load ptr, ptr %3, align 8, !tbaa !3
  %54 = call noundef ptr @_ZL15pj_aitoff_setupP8PJconsts(ptr noundef %53)
  store ptr %54, ptr %2, align 8
  store i32 1, ptr %5, align 4
  br label %55

55:                                               ; preds = %52, %44, %11
  call void @llvm.lifetime.end.p0(i64 8, ptr %4) #8
  %56 = load ptr, ptr %2, align 8
  ret ptr %56
}