; Function Attrs: mustprogress uwtable
define hidden noundef ptr @_Z35pj_projection_specific_setup_wintriP8PJconsts(ptr noundef %0) local_unnamed_addr #0 {
  %2 = tail call noalias dereferenceable_or_null(16) ptr @calloc(i64 noundef 1, i64 noundef 16) #6
  %3 = icmp eq ptr %2, null
  br i1 %3, label %4, label %6

4:                                                ; preds = %1
  %5 = tail call noundef ptr @_Z21pj_default_destructorP8PJconstsi(ptr noundef %0, i32 noundef 4096)
  br label %28

6:                                                ; preds = %1
  %7 = getelementptr inbounds nuw i8, ptr %0, i64 88
  store ptr %2, ptr %7, align 8, !tbaa !3
  %8 = getelementptr inbounds nuw i8, ptr %2, i64 8
  store i32 1, ptr %8, align 8, !tbaa !44
  %9 = load ptr, ptr %0, align 8, !tbaa !47
  %10 = getelementptr inbounds nuw i8, ptr %0, i64 24
  %11 = load ptr, ptr %10, align 8, !tbaa !48
  %12 = tail call i64 @_Z8pj_paramP6pj_ctxP8ARG_listPKc(ptr noundef %9, ptr noundef %11, ptr noundef nonnull @.str.2)
  %13 = and i64 %12, 4294967295
  %.not = icmp eq i64 %13, 0
  br i1 %.not, label %23, label %14

14:                                               ; preds = %6
  %15 = load ptr, ptr %0, align 8, !tbaa !47
  %16 = load ptr, ptr %10, align 8, !tbaa !48
  %17 = tail call i64 @_Z8pj_paramP6pj_ctxP8ARG_listPKc(ptr noundef %15, ptr noundef %16, ptr noundef nonnull @.str.3)
  %18 = bitcast i64 %17 to double
  %19 = tail call double @cos(double noundef %18) #7, !tbaa !49
  store double %19, ptr %2, align 8, !tbaa !50
  %20 = fcmp oeq double %19, 0.000000e+00
  br i1 %20, label %21, label %24

21:                                               ; preds = %14
  tail call void (ptr, ptr, ...) @_Z14proj_log_errorPK8PJconstsPKcz(ptr noundef nonnull %0, ptr noundef nonnull @.str.4)
  %22 = tail call noundef ptr @_Z21pj_default_destructorP8PJconstsi(ptr noundef nonnull %0, i32 noundef 1027)
  br label %28

23:                                               ; preds = %6
  store double 0x3FE45F306DC9C883, ptr %2, align 8, !tbaa !50
  br label %24

24:                                               ; preds = %14, %23
  %25 = getelementptr inbounds nuw i8, ptr %0, i64 112
  store ptr @_ZL16aitoff_s_inverse5PJ_XYP8PJconsts, ptr %25, align 8, !tbaa !36
  %26 = getelementptr inbounds nuw i8, ptr %0, i64 104
  store ptr @_ZL16aitoff_s_forward5PJ_LPP8PJconsts, ptr %26, align 8, !tbaa !37
  %27 = getelementptr inbounds nuw i8, ptr %0, i64 216
  store double 0.000000e+00, ptr %27, align 8, !tbaa !38
  br label %28

28:                                               ; preds = %24, %21, %4
  %.0 = phi ptr [ %5, %4 ], [ %22, %21 ], [ %0, %24 ]
  ret ptr %.0
}